; Function Attrs: nofree norecurse nosync nounwind memory(argmem: readwrite) uwtable
define void @PMIx_Load_key(ptr noundef writeonly captures(none) initializes((0, 512)) %0, ptr noundef readonly captures(address_is_null) %1) local_unnamed_addr #0 {
  tail call void @llvm.memset.p0.i64(ptr noundef nonnull align 1 dereferenceable(512) %0, i8 0, i64 512, i1 false)
  %.not.i = icmp eq ptr %1, null
  br i1 %.not.i, label %pmix_bfrops_base_tma_load_key.exit, label %.lr.ph.i.i

.lr.ph.i.i:                                       ; preds = %2, %5
  %.012.i.i = phi i64 [ %6, %5 ], [ 0, %2 ]
  %.0811.i.i = phi ptr [ %8, %5 ], [ %0, %2 ]
  %.0910.i.i = phi ptr [ %7, %5 ], [ %1, %2 ]
  %3 = load i8, ptr %.0910.i.i, align 1, !tbaa !3
  store i8 %3, ptr %.0811.i.i, align 1, !tbaa !3
  %4 = icmp eq i8 %3, 0
  br i1 %4, label %pmix_strncpy.exit.i, label %5

5:                                                ; preds = %.lr.ph.i.i
  %6 = add nuw nsw i64 %.012.i.i, 1
  %7 = getelementptr inbounds nuw i8, ptr %.0910.i.i, i64 1
  %8 = getelementptr inbounds nuw i8, ptr %.0811.i.i, i64 1
  %exitcond.not.i.i = icmp eq i64 %6, 511
  br i1 %exitcond.not.i.i, label %pmix_strncpy.exit.i, label %.lr.ph.i.i, !llvm.loop !6

pmix_strncpy.exit.i:                              ; preds = %5, %.lr.ph.i.i
  %.08.lcssa.i.i = phi ptr [ %.0811.i.i, %.lr.ph.i.i ], [ %8, %5 ]
  store i8 0, ptr %.08.lcssa.i.i, align 1, !tbaa !3
  br label %pmix_bfrops_base_tma_load_key.exit

pmix_bfrops_base_tma_load_key.exit:               ; preds = %2, %pmix_strncpy.exit.i
  ret void
}